target datalayout = "e-m:e-p270:32:32-p271:32:32-p272:64:64-i64:64-i128:128-f80:128-n8:16:32:64-S128"
target triple = "x86_64-pc-linux-gnu"

%struct.block_q3_K = type { [32 x i8], [64 x i8], [12 x i8], i16 }

@ggml_table_f32_f16 = external global [65536 x float], align 16

; Function Attrs: inlinehint nounwind uwtable
define internal float @ggml_lookup_fp16_to_fp32(i16 noundef zeroext %0) #3 {
  %2 = alloca i16, align 2
  %3 = alloca i16, align 2
  store i16 %0, ptr %2, align 2, !tbaa !42
  call void @llvm.lifetime.start.p0(i64 2, ptr %3) #10
  call void @llvm.memcpy.p0.p0.i64(ptr align 2 %3, ptr align 2 %2, i64 2, i1 false)
  %4 = load i16, ptr %3, align 2, !tbaa !42
  %5 = zext i16 %4 to i64
  %6 = getelementptr inbounds nuw [65536 x float], ptr @ggml_table_f32_f16, i64 0, i64 %5
  %7 = load float, ptr %6, align 4, !tbaa !13
  call void @llvm.lifetime.end.p0(i64 2, ptr %3) #10
  ret float %7
}

; Function Attrs: nounwind uwtable
define void @dequantize_row_q3_K(ptr noalias noundef %0, ptr noalias noundef %1, i64 noundef %2) #0 {
  %4 = alloca ptr, align 8
  %5 = alloca ptr, align 8
  %6 = alloca i64, align 8
  %7 = alloca i32, align 4
  %8 = alloca i32, align 4
  %9 = alloca i32, align 4
  %10 = alloca [4 x i32], align 16
  %11 = alloca ptr, align 8
  %12 = alloca i32, align 4
  %13 = alloca i32, align 4
  %14 = alloca float, align 4
  %15 = alloca ptr, align 8
  %16 = alloca ptr, align 8
  %17 = alloca i8, align 1
  %18 = alloca i32, align 4
  %19 = alloca i32, align 4
  %20 = alloca float, align 4
  %21 = alloca i32, align 4
  %22 = alloca i32, align 4
  %23 = alloca i32, align 4
  %24 = alloca i32, align 4
  %25 = alloca i32, align 4
  store ptr %0, ptr %4, align 8, !tbaa !8
  store ptr %1, ptr %5, align 8, !tbaa !3
  store i64 %2, ptr %6, align 8, !tbaa !9
  call void @llvm.lifetime.start.p0(i64 4, ptr %7) #10
  %26 = load i64, ptr %6, align 8, !tbaa !9
  %27 = sdiv i64 %26, 256
  %28 = trunc i64 %27 to i32
  store i32 %28, ptr %7, align 4, !tbaa !11
  call void @llvm.lifetime.start.p0(i64 4, ptr %8) #10
  store i32 50529027, ptr %8, align 4, !tbaa !11
  call void @llvm.lifetime.start.p0(i64 4, ptr %9) #10
  store i32 252645135, ptr %9, align 4, !tbaa !11
  call void @llvm.lifetime.start.p0(i64 16, ptr %10) #10
  call void @llvm.lifetime.start.p0(i64 8, ptr %11) #10
  %29 = getelementptr inbounds [4 x i32], ptr %10, i64 0, i64 0
  store ptr %29, ptr %11, align 8, !tbaa !61
  call void @llvm.lifetime.start.p0(i64 4, ptr %12) #10
  store i32 0, ptr %12, align 4, !tbaa !11
  br label %30

30:                                               ; preds = %228, %3
  %31 = load i32, ptr %12, align 4, !tbaa !11
  %32 = load i32, ptr %7, align 4, !tbaa !11
  %33 = icmp slt i32 %31, %32
  br i1 %33, label %35, label %34

34:                                               ; preds = %30
  store i32 2, ptr %13, align 4
  call void @llvm.lifetime.end.p0(i64 4, ptr %12) #10
  br label %231

35:                                               ; preds = %30
  call void @llvm.lifetime.start.p0(i64 4, ptr %14) #10
  %36 = load ptr, ptr %4, align 8, !tbaa !8
  %37 = load i32, ptr %12, align 4, !tbaa !11
  %38 = sext i32 %37 to i64
  %39 = getelementptr inbounds %struct.block_q3_K, ptr %36, i64 %38
  %40 = getelementptr inbounds nuw %struct.block_q3_K, ptr %39, i32 0, i32 3
  %41 = load i16, ptr %40, align 2, !tbaa !92
  %42 = call float @ggml_lookup_fp16_to_fp32(i16 noundef zeroext %41)
  store float %42, ptr %14, align 4, !tbaa !13
  call void @llvm.lifetime.start.p0(i64 8, ptr %15) #10
  %43 = load ptr, ptr %4, align 8, !tbaa !8
  %44 = load i32, ptr %12, align 4, !tbaa !11
  %45 = sext i32 %44 to i64
  %46 = getelementptr inbounds %struct.block_q3_K, ptr %43, i64 %45
  %47 = getelementptr inbounds nuw %struct.block_q3_K, ptr %46, i32 0, i32 1
  %48 = getelementptr inbounds [64 x i8], ptr %47, i64 0, i64 0
  store ptr %48, ptr %15, align 8, !tbaa !61
  call void @llvm.lifetime.start.p0(i64 8, ptr %16) #10
  %49 = load ptr, ptr %4, align 8, !tbaa !8
  %50 = load i32, ptr %12, align 4, !tbaa !11
  %51 = sext i32 %50 to i64
  %52 = getelementptr inbounds %struct.block_q3_K, ptr %49, i64 %51
  %53 = getelementptr inbounds nuw %struct.block_q3_K, ptr %52, i32 0, i32 0
  %54 = getelementptr inbounds [32 x i8], ptr %53, i64 0, i64 0
  store ptr %54, ptr %16, align 8, !tbaa !61
  call void @llvm.lifetime.start.p0(i64 1, ptr %17) #10
  store i8 1, ptr %17, align 1, !tbaa !20
  %55 = getelementptr inbounds [4 x i32], ptr %10, i64 0, i64 0
  %56 = load ptr, ptr %4, align 8, !tbaa !8
  %57 = load i32, ptr %12, align 4, !tbaa !11
  %58 = sext i32 %57 to i64
  %59 = getelementptr inbounds %struct.block_q3_K, ptr %56, i64 %58
  %60 = getelementptr inbounds nuw %struct.block_q3_K, ptr %59, i32 0, i32 2
  %61 = getelementptr inbounds [12 x i8], ptr %60, i64 0, i64 0
  call void @llvm.memcpy.p0.p0.i64(ptr align 16 %55, ptr align 2 %61, i64 12, i1 false)
  call void @llvm.lifetime.start.p0(i64 4, ptr %18) #10
  %62 = getelementptr inbounds [4 x i32], ptr %10, i64 0, i64 2
  %63 = load i32, ptr %62, align 8, !tbaa !11
  store i32 %63, ptr %18, align 4, !tbaa !11
  %64 = getelementptr inbounds [4 x i32], ptr %10, i64 0, i64 0
  %65 = load i32, ptr %64, align 16, !tbaa !11
  %66 = lshr i32 %65, 4
  %67 = and i32 %66, 252645135
  %68 = load i32, ptr %18, align 4, !tbaa !11
  %69 = lshr i32 %68, 4
  %70 = and i32 %69, 50529027
  %71 = shl i32 %70, 4
  %72 = or i32 %67, %71
  %73 = getelementptr inbounds [4 x i32], ptr %10, i64 0, i64 2
  store i32 %72, ptr %73, align 8, !tbaa !11
  %74 = getelementptr inbounds [4 x i32], ptr %10, i64 0, i64 1
  %75 = load i32, ptr %74, align 4, !tbaa !11
  %76 = lshr i32 %75, 4
  %77 = and i32 %76, 252645135
  %78 = load i32, ptr %18, align 4, !tbaa !11
  %79 = lshr i32 %78, 6
  %80 = and i32 %79, 50529027
  %81 = shl i32 %80, 4
  %82 = or i32 %77, %81
  %83 = getelementptr inbounds [4 x i32], ptr %10, i64 0, i64 3
  store i32 %82, ptr %83, align 4, !tbaa !11
  %84 = getelementptr inbounds [4 x i32], ptr %10, i64 0, i64 0
  %85 = load i32, ptr %84, align 16, !tbaa !11
  %86 = and i32 %85, 252645135
  %87 = load i32, ptr %18, align 4, !tbaa !11
  %88 = lshr i32 %87, 0
  %89 = and i32 %88, 50529027
  %90 = shl i32 %89, 4
  %91 = or i32 %86, %90
  %92 = getelementptr inbounds [4 x i32], ptr %10, i64 0, i64 0
  store i32 %91, ptr %92, align 16, !tbaa !11
  %93 = getelementptr inbounds [4 x i32], ptr %10, i64 0, i64 1
  %94 = load i32, ptr %93, align 4, !tbaa !11
  %95 = and i32 %94, 252645135
  %96 = load i32, ptr %18, align 4, !tbaa !11
  %97 = lshr i32 %96, 2
  %98 = and i32 %97, 50529027
  %99 = shl i32 %98, 4
  %100 = or i32 %95, %99
  %101 = getelementptr inbounds [4 x i32], ptr %10, i64 0, i64 1
  store i32 %100, ptr %101, align 4, !tbaa !11
  call void @llvm.lifetime.start.p0(i64 4, ptr %19) #10
  store i32 0, ptr %19, align 4, !tbaa !11
  call void @llvm.lifetime.start.p0(i64 4, ptr %20) #10
  call void @llvm.lifetime.start.p0(i64 4, ptr %21) #10
  store i32 0, ptr %21, align 4, !tbaa !11
  br label %102

102:                                              ; preds = %224, %35
  %103 = load i32, ptr %21, align 4, !tbaa !11
  %104 = icmp slt i32 %103, 256
  br i1 %104, label %106, label %105

105:                                              ; preds = %102
  store i32 5, ptr %13, align 4
  call void @llvm.lifetime.end.p0(i64 4, ptr %21) #10
  br label %227

106:                                              ; preds = %102
  call void @llvm.lifetime.start.p0(i64 4, ptr %22) #10
  store i32 0, ptr %22, align 4, !tbaa !11
  call void @llvm.lifetime.start.p0(i64 4, ptr %23) #10
  store i32 0, ptr %23, align 4, !tbaa !11
  br label %107

107:                                              ; preds = %218, %106
  %108 = load i32, ptr %23, align 4, !tbaa !11
  %109 = icmp slt i32 %108, 4
  br i1 %109, label %111, label %110

110:                                              ; preds = %107
  store i32 8, ptr %13, align 4
  call void @llvm.lifetime.end.p0(i64 4, ptr %23) #10
  br label %221

111:                                              ; preds = %107
  %112 = load float, ptr %14, align 4, !tbaa !13
  %113 = load ptr, ptr %11, align 8, !tbaa !61
  %114 = load i32, ptr %19, align 4, !tbaa !11
  %115 = add nsw i32 %114, 1
  store i32 %115, ptr %19, align 4, !tbaa !11
  %116 = sext i32 %114 to i64
  %117 = getelementptr inbounds i8, ptr %113, i64 %116
  %118 = load i8, ptr %117, align 1, !tbaa !20
  %119 = sext i8 %118 to i32
  %120 = sub nsw i32 %119, 32
  %121 = sitofp i32 %120 to float
  %122 = fmul float %112, %121
  store float %122, ptr %20, align 4, !tbaa !13
  call void @llvm.lifetime.start.p0(i64 4, ptr %24) #10
  store i32 0, ptr %24, align 4, !tbaa !11
  br label %123

123:                                              ; preds = %158, %111
  %124 = load i32, ptr %24, align 4, !tbaa !11
  %125 = icmp slt i32 %124, 16
  br i1 %125, label %127, label %126

126:                                              ; preds = %123
  store i32 11, ptr %13, align 4
  call void @llvm.lifetime.end.p0(i64 4, ptr %24) #10
  br label %161

127:                                              ; preds = %123
  %128 = load float, ptr %20, align 4, !tbaa !13
  %129 = load ptr, ptr %15, align 8, !tbaa !61
  %130 = load i32, ptr %24, align 4, !tbaa !11
  %131 = add nsw i32 %130, 0
  %132 = sext i32 %131 to i64
  %133 = getelementptr inbounds i8, ptr %129, i64 %132
  %134 = load i8, ptr %133, align 1, !tbaa !20
  %135 = zext i8 %134 to i32
  %136 = load i32, ptr %22, align 4, !tbaa !11
  %137 = ashr i32 %135, %136
  %138 = and i32 %137, 3
  %139 = trunc i32 %138 to i8
  %140 = sext i8 %139 to i32
  %141 = load ptr, ptr %16, align 8, !tbaa !61
  %142 = load i32, ptr %24, align 4, !tbaa !11
  %143 = add nsw i32 %142, 0
  %144 = sext i32 %143 to i64
  %145 = getelementptr inbounds i8, ptr %141, i64 %144
  %146 = load i8, ptr %145, align 1, !tbaa !20
  %147 = zext i8 %146 to i32
  %148 = load i8, ptr %17, align 1, !tbaa !20
  %149 = zext i8 %148 to i32
  %150 = and i32 %147, %149
  %151 = icmp ne i32 %150, 0
  %152 = select i1 %151, i32 0, i32 4
  %153 = sub nsw i32 %140, %152
  %154 = sitofp i32 %153 to float
  %155 = fmul float %128, %154
  %156 = load ptr, ptr %5, align 8, !tbaa !3
  %157 = getelementptr inbounds nuw float, ptr %156, i32 1
  store ptr %157, ptr %5, align 8, !tbaa !3
  store float %155, ptr %156, align 4, !tbaa !13
  br label %158

158:                                              ; preds = %127
  %159 = load i32, ptr %24, align 4, !tbaa !11
  %160 = add nsw i32 %159, 1
  store i32 %160, ptr %24, align 4, !tbaa !11
  br label %123, !llvm.loop !107

161:                                              ; preds = %126
  %162 = load float, ptr %14, align 4, !tbaa !13
  %163 = load ptr, ptr %11, align 8, !tbaa !61
  %164 = load i32, ptr %19, align 4, !tbaa !11
  %165 = add nsw i32 %164, 1
  store i32 %165, ptr %19, align 4, !tbaa !11
  %166 = sext i32 %164 to i64
  %167 = getelementptr inbounds i8, ptr %163, i64 %166
  %168 = load i8, ptr %167, align 1, !tbaa !20
  %169 = sext i8 %168 to i32
  %170 = sub nsw i32 %169, 32
  %171 = sitofp i32 %170 to float
  %172 = fmul float %162, %171
  store float %172, ptr %20, align 4, !tbaa !13
  call void @llvm.lifetime.start.p0(i64 4, ptr %25) #10
  store i32 0, ptr %25, align 4, !tbaa !11
  br label %173

173:                                              ; preds = %208, %161
  %174 = load i32, ptr %25, align 4, !tbaa !11
  %175 = icmp slt i32 %174, 16
  br i1 %175, label %177, label %176

176:                                              ; preds = %173
  store i32 14, ptr %13, align 4
  call void @llvm.lifetime.end.p0(i64 4, ptr %25) #10
  br label %211

177:                                              ; preds = %173
  %178 = load float, ptr %20, align 4, !tbaa !13
  %179 = load ptr, ptr %15, align 8, !tbaa !61
  %180 = load i32, ptr %25, align 4, !tbaa !11
  %181 = add nsw i32 %180, 16
  %182 = sext i32 %181 to i64
  %183 = getelementptr inbounds i8, ptr %179, i64 %182
  %184 = load i8, ptr %183, align 1, !tbaa !20
  %185 = zext i8 %184 to i32
  %186 = load i32, ptr %22, align 4, !tbaa !11
  %187 = ashr i32 %185, %186
  %188 = and i32 %187, 3
  %189 = trunc i32 %188 to i8
  %190 = sext i8 %189 to i32
  %191 = load ptr, ptr %16, align 8, !tbaa !61
  %192 = load i32, ptr %25, align 4, !tbaa !11
  %193 = add nsw i32 %192, 16
  %194 = sext i32 %193 to i64
  %195 = getelementptr inbounds i8, ptr %191, i64 %194
  %196 = load i8, ptr %195, align 1, !tbaa !20
  %197 = zext i8 %196 to i32
  %198 = load i8, ptr %17, align 1, !tbaa !20
  %199 = zext i8 %198 to i32
  %200 = and i32 %197, %199
  %201 = icmp ne i32 %200, 0
  %202 = select i1 %201, i32 0, i32 4
  %203 = sub nsw i32 %190, %202
  %204 = sitofp i32 %203 to float
  %205 = fmul float %178, %204
  %206 = load ptr, ptr %5, align 8, !tbaa !3
  %207 = getelementptr inbounds nuw float, ptr %206, i32 1
  store ptr %207, ptr %5, align 8, !tbaa !3
  store float %205, ptr %206, align 4, !tbaa !13
  br label %208

208:                                              ; preds = %177
  %209 = load i32, ptr %25, align 4, !tbaa !11
  %210 = add nsw i32 %209, 1
  store i32 %210, ptr %25, align 4, !tbaa !11
  br label %173, !llvm.loop !108

211:                                              ; preds = %176
  %212 = load i32, ptr %22, align 4, !tbaa !11
  %213 = add nsw i32 %212, 2
  store i32 %213, ptr %22, align 4, !tbaa !11
  %214 = load i8, ptr %17, align 1, !tbaa !20
  %215 = zext i8 %214 to i32
  %216 = shl i32 %215, 1
  %217 = trunc i32 %216 to i8
  store i8 %217, ptr %17, align 1, !tbaa !20
  br label %218

218:                                              ; preds = %211
  %219 = load i32, ptr %23, align 4, !tbaa !11
  %220 = add nsw i32 %219, 1
  store i32 %220, ptr %23, align 4, !tbaa !11
  br label %107, !llvm.loop !109

221:                                              ; preds = %110
  %222 = load ptr, ptr %15, align 8, !tbaa !61
  %223 = getelementptr inbounds i8, ptr %222, i64 32
  store ptr %223, ptr %15, align 8, !tbaa !61
  call void @llvm.lifetime.end.p0(i64 4, ptr %22) #10
  br label %224

224:                                              ; preds = %221
  %225 = load i32, ptr %21, align 4, !tbaa !11
  %226 = add nsw i32 %225, 128
  store i32 %226, ptr %21, align 4, !tbaa !11
  br label %102, !llvm.loop !110

227:                                              ; preds = %105
  call void @llvm.lifetime.end.p0(i64 4, ptr %20) #10
  call void @llvm.lifetime.end.p0(i64 4, ptr %19) #10
  call void @llvm.lifetime.end.p0(i64 4, ptr %18) #10
  call void @llvm.lifetime.end.p0(i64 1, ptr %17) #10
  call void @llvm.lifetime.end.p0(i64 8, ptr %16) #10
  call void @llvm.lifetime.end.p0(i64 8, ptr %15) #10
  call void @llvm.lifetime.end.p0(i64 4, ptr %14) #10
  br label %228

228:                                              ; preds = %227
  %229 = load i32, ptr %12, align 4, !tbaa !11
  %230 = add nsw i32 %229, 1
  store i32 %230, ptr %12, align 4, !tbaa !11
  br label %30, !llvm.loop !111

231:                                              ; preds = %34
  call void @llvm.lifetime.end.p0(i64 8, ptr %11) #10
  call void @llvm.lifetime.end.p0(i64 16, ptr %10) #10
  call void @llvm.lifetime.end.p0(i64 4, ptr %9) #10
  call void @llvm.lifetime.end.p0(i64 4, ptr %8) #10
  call void @llvm.lifetime.end.p0(i64 4, ptr %7) #10
  ret void
}