; Function Attrs: nofree norecurse nosync nounwind memory(read, argmem: readwrite, inaccessiblemem: none) uwtable
define void @dequantize_row_q3_K(ptr noalias noundef readonly captures(none) %0, ptr noalias noundef writeonly captures(none) %1, i64 noundef %2) local_unnamed_addr #4 {
  %4 = alloca [4 x i32], align 16
  %5 = sdiv i64 %2, 256
  %6 = trunc i64 %5 to i32
  call void @llvm.lifetime.start.p0(i64 16, ptr nonnull %4) #23
  %7 = icmp sgt i32 %6, 0
  br i1 %7, label %.lr.ph, label %._crit_edge

.lr.ph:                                           ; preds = %3
  %8 = getelementptr inbounds nuw i8, ptr %4, i64 8
  %9 = getelementptr inbounds nuw i8, ptr %4, i64 4
  %10 = getelementptr inbounds nuw i8, ptr %4, i64 12
  %wide.trip.count = and i64 %5, 2147483647
  br label %11

._crit_edge:                                      ; preds = %41, %3
  call void @llvm.lifetime.end.p0(i64 16, ptr nonnull %4) #23
  ret void

11:                                               ; preds = %.lr.ph, %41
  %indvars.iv89 = phi i64 [ 0, %.lr.ph ], [ %indvars.iv.next90, %41 ]
  %.05377 = phi ptr [ %1, %.lr.ph ], [ %87, %41 ]
  %12 = getelementptr inbounds nuw %struct.block_q3_K, ptr %0, i64 %indvars.iv89
  %13 = getelementptr inbounds nuw i8, ptr %12, i64 108
  %14 = load i16, ptr %13, align 2, !tbaa !162
  %15 = zext i16 %14 to i64
  %16 = getelementptr inbounds nuw [65536 x float], ptr @ggml_table_f32_f16, i64 0, i64 %15
  %17 = load float, ptr %16, align 4, !tbaa !8
  %18 = getelementptr inbounds nuw i8, ptr %12, i64 96
  call void @llvm.memcpy.p0.p0.i64(ptr noundef nonnull align 16 dereferenceable(12) %4, ptr noundef nonnull align 2 dereferenceable(12) %18, i64 12, i1 false)
  %19 = load i32, ptr %8, align 8, !tbaa !90
  %20 = load i32, ptr %4, align 16, !tbaa !90
  %21 = lshr i32 %20, 4
  %22 = and i32 %21, 252645135
  %23 = and i32 %19, 808464432
  %24 = or disjoint i32 %22, %23
  store i32 %24, ptr %8, align 8, !tbaa !90
  %25 = load i32, ptr %9, align 4, !tbaa !90
  %26 = lshr i32 %25, 4
  %27 = and i32 %26, 252645135
  %28 = lshr i32 %19, 2
  %29 = and i32 %28, 808464432
  %30 = or disjoint i32 %27, %29
  store i32 %30, ptr %10, align 4, !tbaa !90
  %31 = and i32 %20, 252645135
  %32 = shl i32 %19, 4
  %33 = and i32 %32, 808464432
  %34 = or disjoint i32 %31, %33
  store i32 %34, ptr %4, align 16, !tbaa !90
  %35 = and i32 %25, 252645135
  %36 = shl i32 %19, 2
  %37 = and i32 %36, 808464432
  %38 = or disjoint i32 %35, %37
  store i32 %38, ptr %9, align 4, !tbaa !90
  br label %.preheader

.preheader:                                       ; preds = %11, %42
  %.pn = phi ptr [ %12, %11 ], [ %.05875, %42 ]
  %39 = phi i1 [ true, %11 ], [ false, %42 ]
  %.05273 = phi i64 [ 0, %11 ], [ %indvars.iv.next87, %42 ]
  %.15472 = phi ptr [ %.05377, %11 ], [ %87, %42 ]
  %.05571 = phi i8 [ 1, %11 ], [ %72, %42 ]
  %.05875 = getelementptr inbounds nuw i8, ptr %.pn, i64 32
  %sext = shl i64 %.05273, 32
  %40 = ashr exact i64 %sext, 32
  br label %43

41:                                               ; preds = %42
  %indvars.iv.next90 = add nuw nsw i64 %indvars.iv89, 1
  %exitcond92.not = icmp eq i64 %indvars.iv.next90, %wide.trip.count
  br i1 %exitcond92.not, label %._crit_edge, label %11, !llvm.loop !171

42:                                               ; preds = %70
  br i1 %39, label %.preheader, label %41, !llvm.loop !172

43:                                               ; preds = %.preheader, %70
  %indvars.iv86 = phi i64 [ %40, %.preheader ], [ %indvars.iv.next87, %70 ]
  %.04969 = phi i32 [ 0, %.preheader ], [ %73, %70 ]
  %.05068 = phi i32 [ 0, %.preheader ], [ %71, %70 ]
  %.266 = phi ptr [ %.15472, %.preheader ], [ %87, %70 ]
  %.15665 = phi i8 [ %.05571, %.preheader ], [ %72, %70 ]
  %44 = getelementptr inbounds i8, ptr %4, i64 %indvars.iv86
  %45 = load i8, ptr %44, align 1, !tbaa !13
  %46 = sext i8 %45 to i32
  %47 = add nsw i32 %46, -32
  %48 = sitofp i32 %47 to float
  %49 = fmul float %17, %48
  br label %57

50:                                               ; preds = %57
  %51 = getelementptr i8, ptr %44, i64 1
  %52 = load i8, ptr %51, align 1, !tbaa !13
  %53 = sext i8 %52 to i32
  %54 = add nsw i32 %53, -32
  %55 = sitofp i32 %54 to float
  %56 = fmul float %17, %55
  br label %74

57:                                               ; preds = %43, %57
  %indvars.iv = phi i64 [ 0, %43 ], [ %indvars.iv.next, %57 ]
  %.361 = phi ptr [ %.266, %43 ], [ %69, %57 ]
  %58 = getelementptr inbounds nuw i8, ptr %.05875, i64 %indvars.iv
  %59 = load i8, ptr %58, align 1, !tbaa !13
  %60 = zext i8 %59 to i32
  %61 = lshr i32 %60, %.05068
  %62 = and i32 %61, 3
  %63 = getelementptr inbounds nuw i8, ptr %12, i64 %indvars.iv
  %64 = load i8, ptr %63, align 1, !tbaa !13
  %65 = and i8 %64, %.15665
  %.not59 = icmp eq i8 %65, 0
  %.neg60 = select i1 %.not59, i32 -4, i32 0
  %66 = or disjoint i32 %.neg60, %62
  %67 = sitofp i32 %66 to float
  %68 = fmul float %49, %67
  %69 = getelementptr inbounds nuw i8, ptr %.361, i64 4
  store float %68, ptr %.361, align 4, !tbaa !8
  %indvars.iv.next = add nuw nsw i64 %indvars.iv, 1
  %exitcond.not = icmp eq i64 %indvars.iv.next, 16
  br i1 %exitcond.not, label %50, label %57, !llvm.loop !173

70:                                               ; preds = %74
  %indvars.iv.next87 = add nsw i64 %indvars.iv86, 2
  %71 = add nuw nsw i32 %.05068, 2
  %72 = shl i8 %.15665, 1
  %73 = add nuw nsw i32 %.04969, 1
  %exitcond88.not = icmp eq i32 %73, 4
  br i1 %exitcond88.not, label %42, label %43, !llvm.loop !174

74:                                               ; preds = %50, %74
  %indvars.iv82 = phi i64 [ 0, %50 ], [ %indvars.iv.next83, %74 ]
  %.463 = phi ptr [ %69, %50 ], [ %87, %74 ]
  %75 = or disjoint i64 %indvars.iv82, 16
  %76 = getelementptr inbounds nuw i8, ptr %.05875, i64 %75
  %77 = load i8, ptr %76, align 1, !tbaa !13
  %78 = zext i8 %77 to i32
  %79 = lshr i32 %78, %.05068
  %80 = and i32 %79, 3
  %81 = getelementptr inbounds nuw i8, ptr %12, i64 %75
  %82 = load i8, ptr %81, align 1, !tbaa !13
  %83 = and i8 %82, %.15665
  %.not = icmp eq i8 %83, 0
  %.neg = select i1 %.not, i32 -4, i32 0
  %84 = or disjoint i32 %.neg, %80
  %85 = sitofp i32 %84 to float
  %86 = fmul float %56, %85
  %87 = getelementptr inbounds nuw i8, ptr %.463, i64 4
  store float %86, ptr %.463, align 4, !tbaa !8
  %indvars.iv.next83 = add nuw nsw i64 %indvars.iv82, 1
  %exitcond85.not = icmp eq i64 %indvars.iv.next83, 16
  br i1 %exitcond85.not, label %70, label %74, !llvm.loop !175
}